target datalayout = "e-m:e-p270:32:32-p271:32:32-p272:64:64-i64:64-i128:128-f80:128-n8:16:32:64-S128"
target triple = "x86_64-pc-linux-gnu"

%struct._object = type { %union.anon, ptr }
%union.anon = type { i64 }
%struct.anon = type { i32, i32 }
%struct.__va_list_tag = type { i32, i32, ptr, ptr }

@.str.5 = private unnamed_addr constant [3 x i8] c": \00", align 1
@.str.6 = private unnamed_addr constant [4 x i8] c"???\00", align 1

; Function Attrs: alwaysinline nounwind uwtable
define internal i32 @_Py_IsImmortal(ptr noundef %0) #3 {
  %2 = alloca ptr, align 8
  store ptr %0, ptr %2, align 8, !tbaa !9
  %3 = load ptr, ptr %2, align 8, !tbaa !9
  %4 = getelementptr inbounds nuw %struct._object, ptr %3, i32 0, i32 0
  %5 = getelementptr inbounds nuw %struct.anon, ptr %4, i32 0, i32 0
  %6 = load i32, ptr %5, align 8, !tbaa !16
  %7 = icmp slt i32 %6, 0
  %8 = zext i1 %7 to i32
  ret i32 %8
}

; Function Attrs: alwaysinline nounwind uwtable
define internal void @Py_DECREF(ptr noundef %0) #3 {
  %2 = alloca ptr, align 8
  store ptr %0, ptr %2, align 8, !tbaa !9
  %3 = load ptr, ptr %2, align 8, !tbaa !9
  %4 = call i32 @_Py_IsImmortal(ptr noundef %3)
  %5 = icmp ne i32 %4, 0
  br i1 %5, label %6, label %7

6:                                                ; preds = %1
  br label %16

7:                                                ; preds = %1
  %8 = load ptr, ptr %2, align 8, !tbaa !9
  %9 = getelementptr inbounds nuw %struct._object, ptr %8, i32 0, i32 0
  %10 = getelementptr inbounds nuw %struct.anon, ptr %9, i32 0, i32 0
  %11 = load i32, ptr %10, align 8, !tbaa !16
  %12 = add i32 %11, -1
  store i32 %12, ptr %10, align 8, !tbaa !16
  %13 = icmp eq i32 %12, 0
  br i1 %13, label %14, label %16

14:                                               ; preds = %7
  %15 = load ptr, ptr %2, align 8, !tbaa !9
  call void @_Py_Dealloc(ptr noundef %15)
  br label %16

16:                                               ; preds = %6, %14, %7
  ret void
}

; Function Attrs: inlinehint nounwind uwtable
define internal void @Py_XDECREF(ptr noundef %0) #5 {
  %2 = alloca ptr, align 8
  store ptr %0, ptr %2, align 8, !tbaa !9
  %3 = load ptr, ptr %2, align 8, !tbaa !9
  %4 = icmp ne ptr %3, null
  br i1 %4, label %5, label %7

5:                                                ; preds = %1
  %6 = load ptr, ptr %2, align 8, !tbaa !9
  call void @Py_DECREF(ptr noundef %6)
  br label %7

7:                                                ; preds = %5, %1
  ret void
}

; Function Attrs: inlinehint nounwind uwtable
define internal ptr @_Py_TYPE(ptr noundef %0) #5 {
  %2 = alloca ptr, align 8
  store ptr %0, ptr %2, align 8, !tbaa !9
  %3 = load ptr, ptr %2, align 8, !tbaa !9
  %4 = getelementptr inbounds nuw %struct._object, ptr %3, i32 0, i32 1
  %5 = load ptr, ptr %4, align 8, !tbaa !29
  ret ptr %5
}

; Function Attrs: nounwind uwtable
define hidden void @_ctypes_extend_error(ptr noundef %0, ptr noundef %1, ...) #0 {
  %3 = alloca ptr, align 8
  %4 = alloca ptr, align 8
  %5 = alloca [1 x %struct.__va_list_tag], align 16
  %6 = alloca ptr, align 8
  %7 = alloca i32, align 4
  %8 = alloca ptr, align 8
  %9 = alloca ptr, align 8
  %10 = alloca ptr, align 8
  store ptr %0, ptr %3, align 8, !tbaa !9
  store ptr %1, ptr %4, align 8, !tbaa !27
  call void @llvm.lifetime.start.p0(i64 24, ptr %5) #10
  %11 = getelementptr inbounds [1 x %struct.__va_list_tag], ptr %5, i64 0, i64 0
  call void @llvm.va_start.p0(ptr %11)
  call void @llvm.lifetime.start.p0(i64 8, ptr %6) #10
  %12 = load ptr, ptr %4, align 8, !tbaa !27
  %13 = getelementptr inbounds [1 x %struct.__va_list_tag], ptr %5, i64 0, i64 0
  %14 = call ptr @PyUnicode_FromFormatV(ptr noundef %12, ptr noundef %13)
  store ptr %14, ptr %6, align 8, !tbaa !9
  %15 = getelementptr inbounds [1 x %struct.__va_list_tag], ptr %5, i64 0, i64 0
  call void @llvm.va_end.p0(ptr %15)
  %16 = load ptr, ptr %6, align 8, !tbaa !9
  %17 = icmp eq ptr %16, null
  br i1 %17, label %18, label %19

18:                                               ; preds = %2
  store i32 1, ptr %7, align 4
  br label %53

19:                                               ; preds = %2
  call void @llvm.lifetime.start.p0(i64 8, ptr %8) #10
  %20 = call ptr @PyErr_GetRaisedException()
  store ptr %20, ptr %8, align 8, !tbaa !9
  call void @llvm.lifetime.start.p0(i64 8, ptr %9) #10
  %21 = load ptr, ptr %8, align 8, !tbaa !9
  %22 = call ptr @_Py_TYPE(ptr noundef %21)
  %23 = call ptr @PyType_GetName(ptr noundef %22)
  store ptr %23, ptr %9, align 8, !tbaa !9
  %24 = load ptr, ptr %9, align 8, !tbaa !9
  %25 = icmp ne ptr %24, null
  br i1 %25, label %26, label %33

26:                                               ; preds = %19
  %27 = load ptr, ptr %9, align 8, !tbaa !9
  call void @PyUnicode_AppendAndDel(ptr noundef %6, ptr noundef %27)
  %28 = call ptr @PyUnicode_FromString(ptr noundef @.str.5)
  call void @PyUnicode_AppendAndDel(ptr noundef %6, ptr noundef %28)
  %29 = load ptr, ptr %6, align 8, !tbaa !9
  %30 = icmp eq ptr %29, null
  br i1 %30, label %31, label %32

31:                                               ; preds = %26
  br label %50

32:                                               ; preds = %26
  br label %34

33:                                               ; preds = %19
  call void @PyErr_Clear()
  br label %34

34:                                               ; preds = %33, %32
  %35 = load ptr, ptr %8, align 8, !tbaa !9
  %36 = call ptr @PyObject_Str(ptr noundef %35)
  store ptr %36, ptr %10, align 8, !tbaa !9
  %37 = load ptr, ptr %10, align 8, !tbaa !9
  %38 = icmp ne ptr %37, null
  br i1 %38, label %39, label %41

39:                                               ; preds = %34
  %40 = load ptr, ptr %10, align 8, !tbaa !9
  call void @PyUnicode_AppendAndDel(ptr noundef %6, ptr noundef %40)
  br label %43

41:                                               ; preds = %34
  call void @PyErr_Clear()
  %42 = call ptr @PyUnicode_FromString(ptr noundef @.str.6)
  call void @PyUnicode_AppendAndDel(ptr noundef %6, ptr noundef %42)
  br label %43

43:                                               ; preds = %41, %39
  %44 = load ptr, ptr %6, align 8, !tbaa !9
  %45 = icmp eq ptr %44, null
  br i1 %45, label %46, label %47

46:                                               ; preds = %43
  br label %50

47:                                               ; preds = %43
  %48 = load ptr, ptr %3, align 8, !tbaa !9
  %49 = load ptr, ptr %6, align 8, !tbaa !9
  call void @PyErr_SetObject(ptr noundef %48, ptr noundef %49)
  br label %50

50:                                               ; preds = %47, %46, %31
  %51 = load ptr, ptr %8, align 8, !tbaa !9
  call void @Py_XDECREF(ptr noundef %51)
  %52 = load ptr, ptr %6, align 8, !tbaa !9
  call void @Py_XDECREF(ptr noundef %52)
  call void @llvm.lifetime.end.p0(i64 8, ptr %9) #10
  call void @llvm.lifetime.end.p0(i64 8, ptr %8) #10
  store i32 0, ptr %7, align 4
  br label %53

53:                                               ; preds = %50, %18
  call void @llvm.lifetime.end.p0(i64 8, ptr %6) #10
  call void @llvm.lifetime.end.p0(i64 24, ptr %5) #10
  %54 = load i32, ptr %7, align 4
  switch i32 %54, label %56 [
    i32 0, label %55
    i32 1, label %55
  ]

55:                                               ; preds = %53, %53
  ret void

56:                                               ; preds = %53
  unreachable
}