; Function Attrs: nounwind uwtable
define hidden void @_ctypes_extend_error(ptr noundef %0, ptr noundef %1, ...) local_unnamed_addr #0 {
  %3 = alloca [1 x %struct.__va_list_tag], align 16
  %4 = alloca ptr, align 8
  call void @llvm.lifetime.start.p0(i64 24, ptr nonnull %3) #10
  call void @llvm.va_start.p0(ptr nonnull %3)
  call void @llvm.lifetime.start.p0(i64 8, ptr nonnull %4) #10
  %5 = call ptr @PyUnicode_FromFormatV(ptr noundef %1, ptr noundef nonnull %3) #10
  store ptr %5, ptr %4, align 8, !tbaa !3
  call void @llvm.va_end.p0(ptr nonnull %3)
  %6 = icmp eq ptr %5, null
  br i1 %6, label %Py_XDECREF.exit14, label %7

7:                                                ; preds = %2
  %8 = call ptr @PyErr_GetRaisedException() #10
  %9 = getelementptr i8, ptr %8, i64 8
  %.val = load ptr, ptr %9, align 8, !tbaa !30
  %10 = call ptr @PyType_GetName(ptr noundef %.val) #10
  %.not = icmp eq ptr %10, null
  br i1 %.not, label %15, label %11

11:                                               ; preds = %7
  call void @PyUnicode_AppendAndDel(ptr noundef nonnull %4, ptr noundef nonnull %10) #10
  %12 = call ptr @PyUnicode_FromString(ptr noundef nonnull @.str.5) #10
  call void @PyUnicode_AppendAndDel(ptr noundef nonnull %4, ptr noundef %12) #10
  %13 = load ptr, ptr %4, align 8, !tbaa !3
  %14 = icmp eq ptr %13, null
  br i1 %14, label %24, label %16

15:                                               ; preds = %7
  call void @PyErr_Clear() #10
  br label %16

16:                                               ; preds = %11, %15
  %17 = call ptr @PyObject_Str(ptr noundef nonnull %8) #10
  %.not11 = icmp eq ptr %17, null
  br i1 %.not11, label %18, label %20

18:                                               ; preds = %16
  call void @PyErr_Clear() #10
  %19 = call ptr @PyUnicode_FromString(ptr noundef nonnull @.str.6) #10
  br label %20

20:                                               ; preds = %16, %18
  %.sink = phi ptr [ %19, %18 ], [ %17, %16 ]
  call void @PyUnicode_AppendAndDel(ptr noundef nonnull %4, ptr noundef %.sink) #10
  %21 = load ptr, ptr %4, align 8, !tbaa !3
  %22 = icmp eq ptr %21, null
  br i1 %22, label %24, label %23

23:                                               ; preds = %20
  call void @PyErr_SetObject(ptr noundef %0, ptr noundef nonnull %21) #10
  br label %24

24:                                               ; preds = %23, %11, %20
  %25 = load i32, ptr %8, align 8, !tbaa !11
  %.not.i.i = icmp sgt i32 %25, -1
  br i1 %.not.i.i, label %26, label %Py_XDECREF.exit

26:                                               ; preds = %24
  %27 = add nsw i32 %25, -1
  store i32 %27, ptr %8, align 8, !tbaa !11
  %28 = icmp eq i32 %27, 0
  br i1 %28, label %29, label %Py_XDECREF.exit

29:                                               ; preds = %26
  call void @_Py_Dealloc(ptr noundef nonnull %8) #10
  br label %Py_XDECREF.exit

Py_XDECREF.exit:                                  ; preds = %24, %26, %29
  %30 = load ptr, ptr %4, align 8, !tbaa !3
  %.not.i12 = icmp eq ptr %30, null
  br i1 %.not.i12, label %Py_XDECREF.exit14, label %31

31:                                               ; preds = %Py_XDECREF.exit
  %32 = load i32, ptr %30, align 8, !tbaa !11
  %.not.i.i13 = icmp sgt i32 %32, -1
  br i1 %.not.i.i13, label %33, label %Py_XDECREF.exit14

33:                                               ; preds = %31
  %34 = add nsw i32 %32, -1
  store i32 %34, ptr %30, align 8, !tbaa !11
  %35 = icmp eq i32 %34, 0
  br i1 %35, label %36, label %Py_XDECREF.exit14

36:                                               ; preds = %33
  call void @_Py_Dealloc(ptr noundef nonnull %30) #10
  br label %Py_XDECREF.exit14

Py_XDECREF.exit14:                                ; preds = %36, %33, %31, %Py_XDECREF.exit, %2
  call void @llvm.lifetime.end.p0(i64 8, ptr nonnull %4) #10
  call void @llvm.lifetime.end.p0(i64 24, ptr nonnull %3) #10
  ret void
}